target datalayout = "e-m:e-p270:32:32-p271:32:32-p272:64:64-i64:64-i128:128-f80:128-n8:16:32:64-S128"
target triple = "x86_64-unknown-linux-gnu"

%"class.QuantLib::PagodaMultiPathPricer" = type { %"class.QuantLib::PathPricer", double, double, double }
%"class.QuantLib::PathPricer" = type { ptr }

; Function Attrs: inlinehint mustprogress nounwind uwtable
define linkonce_odr void @_ZN8QuantLib10PathPricerINS_9MultiPathEdEC2Ev(ptr noundef nonnull align 8 dereferenceable(8) %this) unnamed_addr #4 comdat align 2 {
entry:
  %this.addr = alloca ptr, align 8
  store ptr %this, ptr %this.addr, align 8, !tbaa !3
  %this1 = load ptr, ptr %this.addr, align 8
  store ptr getelementptr inbounds inrange(-16, 24) ({ [5 x ptr] }, ptr @_ZTVN8QuantLib10PathPricerINS_9MultiPathEdEE, i32 0, i32 0, i32 2), ptr %this1, align 8, !tbaa !9
  ret void
}

; Function Attrs: mustprogress nounwind uwtable
define void @_ZN8QuantLib21PagodaMultiPathPricerC2Eddd(ptr noundef nonnull align 8 dereferenceable(32) %this, double noundef %roof, double noundef %fraction, double noundef %discount) unnamed_addr #3 align 2 {
entry:
  %this.addr = alloca ptr, align 8
  %roof.addr = alloca double, align 8
  %fraction.addr = alloca double, align 8
  %discount.addr = alloca double, align 8
  store ptr %this, ptr %this.addr, align 8, !tbaa !3
  store double %roof, ptr %roof.addr, align 8, !tbaa !7
  store double %fraction, ptr %fraction.addr, align 8, !tbaa !7
  store double %discount, ptr %discount.addr, align 8, !tbaa !7
  %this1 = load ptr, ptr %this.addr, align 8
  call void @_ZN8QuantLib10PathPricerINS_9MultiPathEdEC2Ev(ptr noundef nonnull align 8 dereferenceable(8) %this1) #9
  store ptr getelementptr inbounds inrange(-16, 24) ({ [5 x ptr] }, ptr @_ZTVN8QuantLib21PagodaMultiPathPricerE, i32 0, i32 0, i32 2), ptr %this1, align 8, !tbaa !9
  %discount_ = getelementptr inbounds nuw %"class.QuantLib::PagodaMultiPathPricer", ptr %this1, i32 0, i32 1
  %0 = load double, ptr %discount.addr, align 8, !tbaa !7
  store double %0, ptr %discount_, align 8, !tbaa !11
  %roof_ = getelementptr inbounds nuw %"class.QuantLib::PagodaMultiPathPricer", ptr %this1, i32 0, i32 2
  %1 = load double, ptr %roof.addr, align 8, !tbaa !7
  store double %1, ptr %roof_, align 8, !tbaa !14
  %fraction_ = getelementptr inbounds nuw %"class.QuantLib::PagodaMultiPathPricer", ptr %this1, i32 0, i32 3
  %2 = load double, ptr %fraction.addr, align 8, !tbaa !7
  store double %2, ptr %fraction_, align 8, !tbaa !15
  ret void
}